target datalayout = "e-m:e-p270:32:32-p271:32:32-p272:64:64-i64:64-i128:128-f80:128-n8:16:32:64-S128"
target triple = "x86_64-pc-linux-gnu"

%"class.tbb::detail::d1::mutex" = type { %"class.tbb::detail::d1::waitable_atomic" }
%"class.tbb::detail::d1::waitable_atomic" = type { %"struct.std::atomic.61" }
%"struct.std::atomic.61" = type { %"struct.std::__atomic_base.62" }
%"struct.std::__atomic_base.62" = type { i8 }
%"class.std::unique_ptr" = type { %"struct.std::__uniq_ptr_data" }
%"struct.std::__uniq_ptr_data" = type { %"class.std::__uniq_ptr_impl" }
%"class.std::__uniq_ptr_impl" = type { %"class.std::tuple" }
%"class.std::tuple" = type { %"struct.std::_Tuple_impl" }
%"struct.std::_Tuple_impl" = type { %"struct.std::_Head_base.1" }
%"struct.std::_Head_base.1" = type { ptr }
%"class.std::unique_ptr.20" = type { %"struct.std::__uniq_ptr_data.21" }
%"struct.std::__uniq_ptr_data.21" = type { %"class.std::__uniq_ptr_impl.22" }
%"class.std::__uniq_ptr_impl.22" = type { %"class.std::tuple.23" }
%"class.std::tuple.23" = type { %"struct.std::_Tuple_impl.24" }
%"struct.std::_Tuple_impl.24" = type { %"struct.std::_Head_base.25" }
%"struct.std::_Head_base.25" = type { ptr }
%"struct.tbb::detail::d1::intrusive_list_node" = type { ptr, ptr }
%"class.std::unique_ptr.36" = type { %"struct.std::__uniq_ptr_data.37" }
%"struct.std::__uniq_ptr_data.37" = type { %"class.std::__uniq_ptr_impl.38" }
%"class.std::__uniq_ptr_impl.38" = type { %"class.std::tuple.39" }
%"class.std::tuple.39" = type { %"struct.std::_Tuple_impl.40" }
%"struct.std::_Tuple_impl.40" = type { %"struct.std::_Head_base.41" }
%"struct.std::_Head_base.41" = type { ptr }
%"class.std::unique_ptr.42" = type { %"struct.std::__uniq_ptr_data.43" }
%"struct.std::__uniq_ptr_data.43" = type { %"class.std::__uniq_ptr_impl.44" }
%"class.std::__uniq_ptr_impl.44" = type { %"class.std::tuple.45" }
%"class.std::tuple.45" = type { %"struct.std::_Tuple_impl.46" }
%"struct.std::_Tuple_impl.46" = type { %"struct.std::_Head_base.47" }
%"struct.std::_Head_base.47" = type { ptr }
%"class.std::unique_ptr.48" = type { %"struct.std::__uniq_ptr_data.49" }
%"struct.std::__uniq_ptr_data.49" = type { %"class.std::__uniq_ptr_impl.50" }
%"class.std::__uniq_ptr_impl.50" = type { %"class.std::tuple.51" }
%"class.std::tuple.51" = type { %"struct.std::_Tuple_impl.52" }
%"struct.std::_Tuple_impl.52" = type { %"struct.std::_Head_base.53" }
%"struct.std::_Head_base.53" = type { ptr }
%"class.tbb::detail::r1::threading_control_impl" = type { %"class.std::unique_ptr", %"class.std::unique_ptr.20", %"class.std::unique_ptr.36", %"class.std::unique_ptr.42", %"class.std::unique_ptr.48" }
%"class.tbb::detail::d1::unique_scoped_lock" = type { ptr }
%"class.tbb::detail::r1::cancellation_disseminator" = type { %"class.tbb::detail::d1::mutex", %"class.tbb::detail::r1::intrusive_list.72" }
%"class.tbb::detail::r1::intrusive_list.72" = type { %"class.tbb::detail::r1::intrusive_list_base.73" }
%"class.tbb::detail::r1::intrusive_list_base.73" = type { %"struct.tbb::detail::d1::intrusive_list_node", i64 }

; Function Attrs: alwaysinline mustprogress nounwind sspstrong uwtable
define linkonce_odr noundef zeroext i1 @_ZNSt13__atomic_baseIbE8exchangeEbSt12memory_order(ptr noundef nonnull align 1 dereferenceable(1) %0, i1 noundef zeroext %1, i32 noundef %2) #4 comdat align 2 {
  %4 = alloca ptr, align 8
  %5 = alloca i8, align 1
  %6 = alloca i32, align 4
  %7 = alloca i8, align 1
  %8 = alloca i8, align 1
  store ptr %0, ptr %4, align 8, !tbaa !269
  %9 = zext i1 %1 to i8
  store i8 %9, ptr %5, align 1, !tbaa !30
  store i32 %2, ptr %6, align 4, !tbaa !136
  %10 = load ptr, ptr %4, align 8
  %11 = getelementptr inbounds nuw %"struct.std::__atomic_base.62", ptr %10, i32 0, i32 0
  %12 = load i32, ptr %6, align 4, !tbaa !136
  %13 = load i8, ptr %5, align 1, !tbaa !30, !range !32, !noundef !33
  %14 = trunc i8 %13 to i1
  %15 = zext i1 %14 to i8
  store i8 %15, ptr %7, align 1, !tbaa !30
  switch i32 %12, label %16 [
    i32 1, label %19
    i32 2, label %19
    i32 3, label %22
    i32 4, label %25
    i32 5, label %28
  ]

16:                                               ; preds = %3
  %17 = load i8, ptr %7, align 1
  %18 = atomicrmw xchg ptr %11, i8 %17 monotonic, align 1
  store i8 %18, ptr %8, align 1
  br label %31

19:                                               ; preds = %3, %3
  %20 = load i8, ptr %7, align 1
  %21 = atomicrmw xchg ptr %11, i8 %20 acquire, align 1
  store i8 %21, ptr %8, align 1
  br label %31

22:                                               ; preds = %3
  %23 = load i8, ptr %7, align 1
  %24 = atomicrmw xchg ptr %11, i8 %23 release, align 1
  store i8 %24, ptr %8, align 1
  br label %31

25:                                               ; preds = %3
  %26 = load i8, ptr %7, align 1
  %27 = atomicrmw xchg ptr %11, i8 %26 acq_rel, align 1
  store i8 %27, ptr %8, align 1
  br label %31

28:                                               ; preds = %3
  %29 = load i8, ptr %7, align 1
  %30 = atomicrmw xchg ptr %11, i8 %29 seq_cst, align 1
  store i8 %30, ptr %8, align 1
  br label %31

31:                                               ; preds = %28, %25, %22, %19, %16
  %32 = load i8, ptr %8, align 1, !tbaa !30, !range !32, !noundef !33
  %33 = trunc i8 %32 to i1
  ret i1 %33
}

; Function Attrs: mustprogress nounwind sspstrong uwtable
define linkonce_odr noundef nonnull align 8 dereferenceable(8) ptr @_ZNSt10_Head_baseILm0EPN3tbb6detail2r125cancellation_disseminatorELb0EE7_M_headERKS5_(ptr noundef nonnull align 8 dereferenceable(8) %0) #3 comdat align 2 {
  %2 = alloca ptr, align 8
  store ptr %0, ptr %2, align 8, !tbaa !199
  %3 = load ptr, ptr %2, align 8, !tbaa !199
  %4 = getelementptr inbounds nuw %"struct.std::_Head_base.47", ptr %3, i32 0, i32 0
  ret ptr %4
}

; Function Attrs: mustprogress nounwind sspstrong uwtable
define linkonce_odr noundef zeroext i1 @_ZNSt6atomicIbE8exchangeEbSt12memory_order(ptr noundef nonnull align 1 dereferenceable(1) %0, i1 noundef zeroext %1, i32 noundef %2) #3 comdat align 2 {
  %4 = alloca ptr, align 8
  %5 = alloca i8, align 1
  %6 = alloca i32, align 4
  store ptr %0, ptr %4, align 8, !tbaa !249
  %7 = zext i1 %1 to i8
  store i8 %7, ptr %5, align 1, !tbaa !30
  store i32 %2, ptr %6, align 4, !tbaa !136
  %8 = load ptr, ptr %4, align 8
  %9 = getelementptr inbounds nuw %"struct.std::atomic.61", ptr %8, i32 0, i32 0
  %10 = load i8, ptr %5, align 1, !tbaa !30, !range !32, !noundef !33
  %11 = trunc i8 %10 to i1
  %12 = load i32, ptr %6, align 4, !tbaa !136
  %13 = call noundef zeroext i1 @_ZNSt13__atomic_baseIbE8exchangeEbSt12memory_order(ptr noundef nonnull align 1 dereferenceable(1) %9, i1 noundef zeroext %11, i32 noundef %12) #7
  ret i1 %13
}

; Function Attrs: mustprogress nounwind sspstrong uwtable
define linkonce_odr noundef nonnull align 8 dereferenceable(8) ptr @_ZNSt11_Tuple_implILm0EJPN3tbb6detail2r125cancellation_disseminatorENS2_21cache_aligned_deleterEEE7_M_headERKS6_(ptr noundef nonnull align 8 dereferenceable(8) %0) #3 comdat align 2 {
  %2 = alloca ptr, align 8
  store ptr %0, ptr %2, align 8, !tbaa !197
  %3 = load ptr, ptr %2, align 8, !tbaa !197
  %4 = call noundef nonnull align 8 dereferenceable(8) ptr @_ZNSt10_Head_baseILm0EPN3tbb6detail2r125cancellation_disseminatorELb0EE7_M_headERKS5_(ptr noundef nonnull align 8 dereferenceable(8) %3) #7
  ret ptr %4
}

; Function Attrs: mustprogress sspstrong uwtable
define linkonce_odr void @_ZN3tbb6detail2d115waitable_atomicIbE18notify_one_relaxedEv(ptr noundef nonnull align 1 dereferenceable(1) %0) #0 comdat align 2 {
  %2 = alloca ptr, align 8
  store ptr %0, ptr %2, align 8, !tbaa !353
  %3 = load ptr, ptr %2, align 8
  call void @_ZN3tbb6detail2r121notify_by_address_oneEPv(ptr noundef %3)
  ret void
}

; Function Attrs: mustprogress nounwind sspstrong uwtable
define linkonce_odr noundef zeroext i1 @_ZN3tbb6detail2d115waitable_atomicIbE8exchangeEb(ptr noundef nonnull align 1 dereferenceable(1) %0, i1 noundef zeroext %1) #3 comdat align 2 {
  %3 = alloca ptr, align 8
  %4 = alloca i8, align 1
  store ptr %0, ptr %3, align 8, !tbaa !353
  %5 = zext i1 %1 to i8
  store i8 %5, ptr %4, align 1, !tbaa !30
  %6 = load ptr, ptr %3, align 8
  %7 = getelementptr inbounds nuw %"class.tbb::detail::d1::waitable_atomic", ptr %6, i32 0, i32 0
  %8 = load i8, ptr %4, align 1, !tbaa !30, !range !32, !noundef !33
  %9 = trunc i8 %8 to i1
  %10 = call noundef zeroext i1 @_ZNSt6atomicIbE8exchangeEbSt12memory_order(ptr noundef nonnull align 1 dereferenceable(1) %7, i1 noundef zeroext %9, i32 noundef 5) #7
  ret i1 %10
}

; Function Attrs: inlinehint mustprogress nounwind sspstrong uwtable
define linkonce_odr void @_ZN3tbb6detail2d115call_itt_notifyENS1_11notify_typeEPv(i32 noundef %0, ptr noundef %1) #5 comdat {
  %3 = alloca i32, align 4
  %4 = alloca ptr, align 8
  store i32 %0, ptr %3, align 4, !tbaa !351
  store ptr %1, ptr %4, align 8, !tbaa !267
  ret void
}

; Function Attrs: mustprogress nounwind sspstrong uwtable
define linkonce_odr noundef nonnull align 8 dereferenceable(8) ptr @_ZSt12__get_helperILm0EPN3tbb6detail2r125cancellation_disseminatorEJNS2_21cache_aligned_deleterEEERKT0_RKSt11_Tuple_implIXT_EJS6_DpT1_EE(ptr noundef nonnull align 8 dereferenceable(8) %0) #3 comdat {
  %2 = alloca ptr, align 8
  store ptr %0, ptr %2, align 8, !tbaa !197
  %3 = load ptr, ptr %2, align 8, !tbaa !197
  %4 = call noundef nonnull align 8 dereferenceable(8) ptr @_ZNSt11_Tuple_implILm0EJPN3tbb6detail2r125cancellation_disseminatorENS2_21cache_aligned_deleterEEE7_M_headERKS6_(ptr noundef nonnull align 8 dereferenceable(8) %3) #7
  ret ptr %4
}

; Function Attrs: mustprogress sspstrong uwtable
define linkonce_odr void @_ZN3tbb6detail2d15mutex6unlockEv(ptr noundef nonnull align 1 dereferenceable(1) %0) #0 comdat align 2 {
  %2 = alloca ptr, align 8
  store ptr %0, ptr %2, align 8, !tbaa !141
  %3 = load ptr, ptr %2, align 8
  call void @_ZN3tbb6detail2d115call_itt_notifyENS1_11notify_typeEPv(i32 noundef 3, ptr noundef %3)
  %4 = getelementptr inbounds nuw %"class.tbb::detail::d1::mutex", ptr %3, i32 0, i32 0
  %5 = call noundef zeroext i1 @_ZN3tbb6detail2d115waitable_atomicIbE8exchangeEb(ptr noundef nonnull align 1 dereferenceable(1) %4, i1 noundef zeroext false) #7
  %6 = getelementptr inbounds nuw %"class.tbb::detail::d1::mutex", ptr %3, i32 0, i32 0
  call void @_ZN3tbb6detail2d115waitable_atomicIbE18notify_one_relaxedEv(ptr noundef nonnull align 1 dereferenceable(1) %6)
  ret void
}

; Function Attrs: mustprogress nounwind sspstrong uwtable
define linkonce_odr noundef nonnull align 8 dereferenceable(16) ptr @_ZN3tbb6detail2r114intrusive_listINS1_11thread_dataEE4nodeERS3_(ptr noundef nonnull align 8 dereferenceable(240) %0) #3 comdat align 2 {
  %2 = alloca ptr, align 8
  store ptr %0, ptr %2, align 8, !tbaa !114
  %3 = load ptr, ptr %2, align 8, !tbaa !114
  ret ptr %3
}

; Function Attrs: mustprogress nounwind sspstrong uwtable
define linkonce_odr noundef nonnull align 8 dereferenceable(8) ptr @_ZSt3getILm0EJPN3tbb6detail2r125cancellation_disseminatorENS2_21cache_aligned_deleterEEERKNSt13tuple_elementIXT_ESt5tupleIJDpT0_EEE4typeERKSA_(ptr noundef nonnull align 8 dereferenceable(8) %0) #3 comdat {
  %2 = alloca ptr, align 8
  store ptr %0, ptr %2, align 8, !tbaa !195
  %3 = load ptr, ptr %2, align 8, !tbaa !195
  %4 = call noundef nonnull align 8 dereferenceable(8) ptr @_ZSt12__get_helperILm0EPN3tbb6detail2r125cancellation_disseminatorEJNS2_21cache_aligned_deleterEEERKT0_RKSt11_Tuple_implIXT_EJS6_DpT1_EE(ptr noundef nonnull align 8 dereferenceable(8) %3) #7
  ret ptr %4
}

; Function Attrs: mustprogress sspstrong uwtable
define linkonce_odr void @_ZN3tbb6detail2d118unique_scoped_lockINS1_5mutexEE7releaseEv(ptr noundef nonnull align 8 dereferenceable(8) %0) #0 comdat align 2 {
  %2 = alloca ptr, align 8
  store ptr %0, ptr %2, align 8, !tbaa !131
  %3 = load ptr, ptr %2, align 8
  %4 = getelementptr inbounds nuw %"class.tbb::detail::d1::unique_scoped_lock", ptr %3, i32 0, i32 0
  %5 = load ptr, ptr %4, align 8, !tbaa !138
  call void @_ZN3tbb6detail2d15mutex6unlockEv(ptr noundef nonnull align 1 dereferenceable(1) %5)
  %6 = getelementptr inbounds nuw %"class.tbb::detail::d1::unique_scoped_lock", ptr %3, i32 0, i32 0
  store ptr null, ptr %6, align 8, !tbaa !138
  ret void
}

; Function Attrs: mustprogress nounwind sspstrong uwtable
define linkonce_odr void @_ZNK3tbb6detail2r119intrusive_list_baseINS1_14intrusive_listINS1_11thread_dataEEES4_E9assert_okEv(ptr noundef nonnull align 8 dereferenceable(24) %0) #3 comdat align 2 {
  %2 = alloca ptr, align 8
  store ptr %0, ptr %2, align 8, !tbaa !293
  ret void
}

; Function Attrs: mustprogress sspstrong uwtable
define linkonce_odr noundef nonnull align 8 dereferenceable(16) ptr @_ZN3tbb6detail2r119intrusive_list_baseINS1_14intrusive_listINS1_11thread_dataEEES4_E4nodeERS4_(ptr noundef nonnull align 8 dereferenceable(240) %0) #0 comdat align 2 {
  %2 = alloca ptr, align 8
  store ptr %0, ptr %2, align 8, !tbaa !114
  %3 = load ptr, ptr %2, align 8, !tbaa !114
  %4 = call noundef nonnull align 8 dereferenceable(16) ptr @_ZN3tbb6detail2r114intrusive_listINS1_11thread_dataEE4nodeERS3_(ptr noundef nonnull align 8 dereferenceable(240) %3)
  ret ptr %4
}

; Function Attrs: mustprogress nounwind sspstrong uwtable
define linkonce_odr noundef ptr @_ZNKSt15__uniq_ptr_implIN3tbb6detail2r125cancellation_disseminatorENS2_21cache_aligned_deleterEE6_M_ptrEv(ptr noundef nonnull align 8 dereferenceable(8) %0) #3 comdat align 2 {
  %2 = alloca ptr, align 8
  store ptr %0, ptr %2, align 8, !tbaa !193
  %3 = load ptr, ptr %2, align 8
  %4 = getelementptr inbounds nuw %"class.std::__uniq_ptr_impl.44", ptr %3, i32 0, i32 0
  %5 = call noundef nonnull align 8 dereferenceable(8) ptr @_ZSt3getILm0EJPN3tbb6detail2r125cancellation_disseminatorENS2_21cache_aligned_deleterEEERKNSt13tuple_elementIXT_ESt5tupleIJDpT0_EEE4typeERKSA_(ptr noundef nonnull align 8 dereferenceable(8) %4) #7
  %6 = load ptr, ptr %5, align 8, !tbaa !86
  ret ptr %6
}

; Function Attrs: mustprogress nounwind sspstrong uwtable
define linkonce_odr void @_ZN3tbb6detail2d118unique_scoped_lockINS1_5mutexEED2Ev(ptr noundef nonnull align 8 dereferenceable(8) %0) unnamed_addr #3 comdat align 2 personality ptr @__gxx_personality_v0 {
  %2 = alloca ptr, align 8
  store ptr %0, ptr %2, align 8, !tbaa !131
  %3 = load ptr, ptr %2, align 8
  %4 = getelementptr inbounds nuw %"class.tbb::detail::d1::unique_scoped_lock", ptr %3, i32 0, i32 0
  %5 = load ptr, ptr %4, align 8, !tbaa !138
  %6 = icmp ne ptr %5, null
  br i1 %6, label %7, label %9

7:                                                ; preds = %1
  invoke void @_ZN3tbb6detail2d118unique_scoped_lockINS1_5mutexEE7releaseEv(ptr noundef nonnull align 8 dereferenceable(8) %3)
          to label %8 unwind label %10

8:                                                ; preds = %7
  br label %9

9:                                                ; preds = %8, %1
  ret void

10:                                               ; preds = %7
  %11 = landingpad { ptr, i32 }
          catch ptr null
  %12 = extractvalue { ptr, i32 } %11, 0
  call void @__clang_call_terminate(ptr %12) #14
  unreachable
}

; Function Attrs: mustprogress sspstrong uwtable
define linkonce_odr void @_ZN3tbb6detail2r119intrusive_list_baseINS1_14intrusive_listINS1_11thread_dataEEES4_E10push_frontERS4_(ptr noundef nonnull align 8 dereferenceable(24) %0, ptr noundef nonnull align 8 dereferenceable(240) %1) #0 comdat align 2 {
  %3 = alloca ptr, align 8
  %4 = alloca ptr, align 8
  store ptr %0, ptr %3, align 8, !tbaa !293
  store ptr %1, ptr %4, align 8, !tbaa !114
  %5 = load ptr, ptr %3, align 8
  %6 = getelementptr inbounds nuw %"class.tbb::detail::r1::intrusive_list_base.73", ptr %5, i32 0, i32 0
  %7 = load ptr, ptr %4, align 8, !tbaa !114
  %8 = call noundef nonnull align 8 dereferenceable(16) ptr @_ZN3tbb6detail2r119intrusive_list_baseINS1_14intrusive_listINS1_11thread_dataEEES4_E4nodeERS4_(ptr noundef nonnull align 8 dereferenceable(240) %7)
  %9 = getelementptr inbounds nuw %"struct.tbb::detail::d1::intrusive_list_node", ptr %8, i32 0, i32 0
  store ptr %6, ptr %9, align 8, !tbaa !295
  %10 = getelementptr inbounds nuw %"class.tbb::detail::r1::intrusive_list_base.73", ptr %5, i32 0, i32 0
  %11 = getelementptr inbounds nuw %"struct.tbb::detail::d1::intrusive_list_node", ptr %10, i32 0, i32 1
  %12 = load ptr, ptr %11, align 8, !tbaa !296
  %13 = load ptr, ptr %4, align 8, !tbaa !114
  %14 = call noundef nonnull align 8 dereferenceable(16) ptr @_ZN3tbb6detail2r119intrusive_list_baseINS1_14intrusive_listINS1_11thread_dataEEES4_E4nodeERS4_(ptr noundef nonnull align 8 dereferenceable(240) %13)
  %15 = getelementptr inbounds nuw %"struct.tbb::detail::d1::intrusive_list_node", ptr %14, i32 0, i32 1
  store ptr %12, ptr %15, align 8, !tbaa !298
  %16 = load ptr, ptr %4, align 8, !tbaa !114
  %17 = call noundef nonnull align 8 dereferenceable(16) ptr @_ZN3tbb6detail2r119intrusive_list_baseINS1_14intrusive_listINS1_11thread_dataEEES4_E4nodeERS4_(ptr noundef nonnull align 8 dereferenceable(240) %16)
  %18 = getelementptr inbounds nuw %"class.tbb::detail::r1::intrusive_list_base.73", ptr %5, i32 0, i32 0
  %19 = getelementptr inbounds nuw %"struct.tbb::detail::d1::intrusive_list_node", ptr %18, i32 0, i32 1
  %20 = load ptr, ptr %19, align 8, !tbaa !296
  %21 = getelementptr inbounds nuw %"struct.tbb::detail::d1::intrusive_list_node", ptr %20, i32 0, i32 0
  store ptr %17, ptr %21, align 8, !tbaa !295
  %22 = load ptr, ptr %4, align 8, !tbaa !114
  %23 = call noundef nonnull align 8 dereferenceable(16) ptr @_ZN3tbb6detail2r119intrusive_list_baseINS1_14intrusive_listINS1_11thread_dataEEES4_E4nodeERS4_(ptr noundef nonnull align 8 dereferenceable(240) %22)
  %24 = getelementptr inbounds nuw %"class.tbb::detail::r1::intrusive_list_base.73", ptr %5, i32 0, i32 0
  %25 = getelementptr inbounds nuw %"struct.tbb::detail::d1::intrusive_list_node", ptr %24, i32 0, i32 1
  store ptr %23, ptr %25, align 8, !tbaa !296
  %26 = getelementptr inbounds nuw %"class.tbb::detail::r1::intrusive_list_base.73", ptr %5, i32 0, i32 1
  %27 = load i64, ptr %26, align 8, !tbaa !299
  %28 = add i64 %27, 1
  store i64 %28, ptr %26, align 8, !tbaa !299
  call void @_ZNK3tbb6detail2r119intrusive_list_baseINS1_14intrusive_listINS1_11thread_dataEEES4_E9assert_okEv(ptr noundef nonnull align 8 dereferenceable(24) %5)
  ret void
}

; Function Attrs: mustprogress sspstrong uwtable
define linkonce_odr void @_ZN3tbb6detail2d118unique_scoped_lockINS1_5mutexEEC2ERS3_(ptr noundef nonnull align 8 dereferenceable(8) %0, ptr noundef nonnull align 1 dereferenceable(1) %1) unnamed_addr #0 comdat align 2 {
  %3 = alloca ptr, align 8
  %4 = alloca ptr, align 8
  store ptr %0, ptr %3, align 8, !tbaa !131
  store ptr %1, ptr %4, align 8, !tbaa !141
  %5 = load ptr, ptr %3, align 8
  %6 = getelementptr inbounds nuw %"class.tbb::detail::d1::unique_scoped_lock", ptr %5, i32 0, i32 0
  store ptr null, ptr %6, align 8, !tbaa !138
  %7 = load ptr, ptr %4, align 8, !tbaa !141
  call void @_ZN3tbb6detail2d118unique_scoped_lockINS1_5mutexEE7acquireERS3_(ptr noundef nonnull align 8 dereferenceable(8) %5, ptr noundef nonnull align 1 dereferenceable(1) %7)
  ret void
}

; Function Attrs: mustprogress nounwind sspstrong uwtable
define linkonce_odr noundef ptr @_ZNKSt10unique_ptrIN3tbb6detail2r125cancellation_disseminatorENS2_21cache_aligned_deleterEE3getEv(ptr noundef nonnull align 8 dereferenceable(8) %0) #3 comdat align 2 {
  %2 = alloca ptr, align 8
  store ptr %0, ptr %2, align 8, !tbaa !64
  %3 = load ptr, ptr %2, align 8
  %4 = getelementptr inbounds nuw %"class.std::unique_ptr.42", ptr %3, i32 0, i32 0
  %5 = call noundef ptr @_ZNKSt15__uniq_ptr_implIN3tbb6detail2r125cancellation_disseminatorENS2_21cache_aligned_deleterEE6_M_ptrEv(ptr noundef nonnull align 8 dereferenceable(8) %4) #7
  ret ptr %5
}

; Function Attrs: mustprogress sspstrong uwtable
define linkonce_odr void @_ZN3tbb6detail2r125cancellation_disseminator15register_threadERNS1_11thread_dataE(ptr noundef nonnull align 8 dereferenceable(32) %0, ptr noundef nonnull align 8 dereferenceable(240) %1) #0 comdat align 2 personality ptr @__gxx_personality_v0 {
  %3 = alloca ptr, align 8
  %4 = alloca ptr, align 8
  %5 = alloca %"class.tbb::detail::d1::unique_scoped_lock", align 8
  %6 = alloca ptr, align 8
  %7 = alloca i32, align 4
  store ptr %0, ptr %3, align 8, !tbaa !86
  store ptr %1, ptr %4, align 8, !tbaa !114
  %8 = load ptr, ptr %3, align 8
  call void @llvm.lifetime.start.p0(i64 8, ptr %5) #7
  %9 = getelementptr inbounds nuw %"class.tbb::detail::r1::cancellation_disseminator", ptr %8, i32 0, i32 0
  call void @_ZN3tbb6detail2d118unique_scoped_lockINS1_5mutexEEC2ERS3_(ptr noundef nonnull align 8 dereferenceable(8) %5, ptr noundef nonnull align 1 dereferenceable(1) %9)
  %10 = getelementptr inbounds nuw %"class.tbb::detail::r1::cancellation_disseminator", ptr %8, i32 0, i32 1
  %11 = load ptr, ptr %4, align 8, !tbaa !114
  invoke void @_ZN3tbb6detail2r119intrusive_list_baseINS1_14intrusive_listINS1_11thread_dataEEES4_E10push_frontERS4_(ptr noundef nonnull align 8 dereferenceable(24) %10, ptr noundef nonnull align 8 dereferenceable(240) %11)
          to label %12 unwind label %13

12:                                               ; preds = %2
  call void @_ZN3tbb6detail2d118unique_scoped_lockINS1_5mutexEED2Ev(ptr noundef nonnull align 8 dereferenceable(8) %5) #7
  call void @llvm.lifetime.end.p0(i64 8, ptr %5) #7
  ret void

13:                                               ; preds = %2
  %14 = landingpad { ptr, i32 }
          cleanup
  %15 = extractvalue { ptr, i32 } %14, 0
  store ptr %15, ptr %6, align 8
  %16 = extractvalue { ptr, i32 } %14, 1
  store i32 %16, ptr %7, align 4
  call void @_ZN3tbb6detail2d118unique_scoped_lockINS1_5mutexEED2Ev(ptr noundef nonnull align 8 dereferenceable(8) %5) #7
  call void @llvm.lifetime.end.p0(i64 8, ptr %5) #7
  br label %17

17:                                               ; preds = %13
  %18 = load ptr, ptr %6, align 8
  %19 = load i32, ptr %7, align 4
  %20 = insertvalue { ptr, i32 } poison, ptr %18, 0
  %21 = insertvalue { ptr, i32 } %20, i32 %19, 1
  resume { ptr, i32 } %21
}

; Function Attrs: mustprogress nounwind sspstrong uwtable
define linkonce_odr noundef ptr @_ZNKSt10unique_ptrIN3tbb6detail2r125cancellation_disseminatorENS2_21cache_aligned_deleterEEptEv(ptr noundef nonnull align 8 dereferenceable(8) %0) #3 comdat align 2 {
  %2 = alloca ptr, align 8
  store ptr %0, ptr %2, align 8, !tbaa !64
  %3 = load ptr, ptr %2, align 8
  %4 = call noundef ptr @_ZNKSt10unique_ptrIN3tbb6detail2r125cancellation_disseminatorENS2_21cache_aligned_deleterEE3getEv(ptr noundef nonnull align 8 dereferenceable(8) %3) #7
  ret ptr %4
}

; Function Attrs: mustprogress sspstrong uwtable
define void @_ZN3tbb6detail2r122threading_control_impl15register_threadERNS1_11thread_dataE(ptr noundef nonnull align 8 dereferenceable(40) %0, ptr noundef nonnull align 8 dereferenceable(240) %1) #0 align 2 {
  %3 = alloca ptr, align 8
  %4 = alloca ptr, align 8
  store ptr %0, ptr %3, align 8, !tbaa !58
  store ptr %1, ptr %4, align 8, !tbaa !114
  %5 = load ptr, ptr %3, align 8
  %6 = getelementptr inbounds nuw %"class.tbb::detail::r1::threading_control_impl", ptr %5, i32 0, i32 3
  %7 = call noundef ptr @_ZNKSt10unique_ptrIN3tbb6detail2r125cancellation_disseminatorENS2_21cache_aligned_deleterEEptEv(ptr noundef nonnull align 8 dereferenceable(8) %6) #7
  %8 = load ptr, ptr %4, align 8, !tbaa !114
  call void @_ZN3tbb6detail2r125cancellation_disseminator15register_threadERNS1_11thread_dataE(ptr noundef nonnull align 8 dereferenceable(32) %7, ptr noundef nonnull align 8 dereferenceable(240) %8)
  ret void
}